target datalayout = "e-m:e-p270:32:32-p271:32:32-p272:64:64-i64:64-i128:128-f80:128-n8:16:32:64-S128"
target triple = "x86_64-pc-linux-gnu"

%struct.pmix_mca_base_framework_t = type { ptr, ptr, ptr, ptr, ptr, ptr, i32, i32, ptr, ptr, i32, i32, %struct.pmix_list_t, %struct.pmix_list_t }
%struct.pmix_list_t = type { %struct.pmix_object_t, %struct.pmix_list_item_t, i64 }
%struct.pmix_object_t = type { %union.pthread_mutex_t, ptr, i32, %struct.pmix_tma }
%union.pthread_mutex_t = type { %struct.__pthread_mutex_s }
%struct.__pthread_mutex_s = type { i32, i32, i32, i32, i32, i16, i16, %struct.__pthread_internal_list }
%struct.__pthread_internal_list = type { ptr, ptr }
%struct.pmix_tma = type { ptr, ptr, ptr, ptr, ptr, ptr, ptr, ptr }
%struct.pmix_list_item_t = type { %struct.pmix_object_t, ptr, ptr, i32 }
%struct.pmix_output_desc_t = type { i8, i8, i32, i8, i32, ptr, ptr, i32, ptr, i32, i8, i8, i8, i8, ptr, i32, i32 }
%struct.pmix_buffer_t = type { %struct.pmix_object_t, i8, ptr, ptr, ptr, i64, i64 }
%union.anon.0 = type { i64 }

@pmix_bfrops_base_framework = external global %struct.pmix_mca_base_framework_t, align 8
@pmix_output_info = external global [0 x %struct.pmix_output_desc_t], align 8
@.str.11 = private unnamed_addr constant [30 x i8] c"pmix_bfrop_unpack_int64 * %d\0A\00", align 1

; Function Attrs: inlinehint nounwind uwtable
define internal i32 @__bswap_32(i32 noundef %0) #3 {
  %2 = alloca i32, align 4
  store i32 %0, ptr %2, align 4, !tbaa !13
  %3 = load i32, ptr %2, align 4, !tbaa !13
  %4 = and i32 %3, -16777216
  %5 = lshr i32 %4, 24
  %6 = load i32, ptr %2, align 4, !tbaa !13
  %7 = and i32 %6, 16711680
  %8 = lshr i32 %7, 8
  %9 = or i32 %5, %8
  %10 = load i32, ptr %2, align 4, !tbaa !13
  %11 = and i32 %10, 65280
  %12 = shl i32 %11, 8
  %13 = or i32 %9, %12
  %14 = load i32, ptr %2, align 4, !tbaa !13
  %15 = and i32 %14, 255
  %16 = shl i32 %15, 24
  %17 = or i32 %13, %16
  ret i32 %17
}

; Function Attrs: inlinehint nounwind willreturn memory(none) uwtable
define internal i64 @pmix_ntoh64(i64 noundef %0) #7 {
  %2 = alloca i64, align 8
  %3 = alloca i64, align 8
  %4 = alloca %union.anon.0, align 8
  %5 = alloca %union.anon.0, align 8
  %6 = alloca i32, align 4
  store i64 %0, ptr %3, align 8, !tbaa !54
  call void @llvm.lifetime.start.p0(i64 8, ptr %4) #11
  call void @llvm.lifetime.start.p0(i64 8, ptr %5) #11
  %7 = call i32 @__bswap_32(i32 noundef 1)
  %8 = zext i32 %7 to i64
  %9 = icmp eq i64 %8, 1
  br i1 %9, label %10, label %12

10:                                               ; preds = %1
  %11 = load i64, ptr %3, align 8, !tbaa !54
  store i64 %11, ptr %2, align 8
  store i32 1, ptr %6, align 4
  br label %23

12:                                               ; preds = %1
  %13 = load i64, ptr %3, align 8, !tbaa !54
  store i64 %13, ptr %4, align 8, !tbaa !41
  %14 = getelementptr inbounds [2 x i32], ptr %4, i64 0, i64 1
  %15 = load i32, ptr %14, align 4, !tbaa !41
  %16 = call i32 @__bswap_32(i32 noundef %15)
  %17 = getelementptr inbounds [2 x i32], ptr %5, i64 0, i64 0
  store i32 %16, ptr %17, align 8, !tbaa !41
  %18 = getelementptr inbounds [2 x i32], ptr %4, i64 0, i64 0
  %19 = load i32, ptr %18, align 8, !tbaa !41
  %20 = call i32 @__bswap_32(i32 noundef %19)
  %21 = getelementptr inbounds [2 x i32], ptr %5, i64 0, i64 1
  store i32 %20, ptr %21, align 4, !tbaa !41
  %22 = load i64, ptr %5, align 8, !tbaa !41
  store i64 %22, ptr %2, align 8
  store i32 1, ptr %6, align 4
  br label %23

23:                                               ; preds = %12, %10
  call void @llvm.lifetime.end.p0(i64 8, ptr %5) #11
  call void @llvm.lifetime.end.p0(i64 8, ptr %4) #11
  %24 = load i64, ptr %2, align 8
  ret i64 %24
}

; Function Attrs: nounwind uwtable
define i32 @pmix_bfrops_base_unpack_int64(ptr noundef %0, ptr noundef %1, ptr noundef %2, ptr noundef %3, i16 noundef zeroext %4) #0 {
  %6 = alloca i32, align 4
  %7 = alloca ptr, align 8
  %8 = alloca ptr, align 8
  %9 = alloca ptr, align 8
  %10 = alloca ptr, align 8
  %11 = alloca i16, align 2
  %12 = alloca i32, align 4
  %13 = alloca i64, align 8
  %14 = alloca ptr, align 8
  %15 = alloca i32, align 4
  store ptr %0, ptr %7, align 8, !tbaa !3
  store ptr %1, ptr %8, align 8, !tbaa !8
  store ptr %2, ptr %9, align 8, !tbaa !8
  store ptr %3, ptr %10, align 8, !tbaa !9
  store i16 %4, ptr %11, align 2, !tbaa !11
  call void @llvm.lifetime.start.p0(i64 4, ptr %12) #11
  call void @llvm.lifetime.start.p0(i64 8, ptr %13) #11
  call void @llvm.lifetime.start.p0(i64 8, ptr %14) #11
  %16 = load ptr, ptr %9, align 8, !tbaa !8
  store ptr %16, ptr %14, align 8, !tbaa !53
  %17 = load i32, ptr getelementptr inbounds nuw (%struct.pmix_mca_base_framework_t, ptr @pmix_bfrops_base_framework, i32 0, i32 11), align 4, !tbaa !15
  %18 = icmp sge i32 %17, 0
  br i1 %18, label %19, label %33

19:                                               ; preds = %5
  %20 = load i32, ptr getelementptr inbounds nuw (%struct.pmix_mca_base_framework_t, ptr @pmix_bfrops_base_framework, i32 0, i32 11), align 4, !tbaa !15
  %21 = icmp slt i32 %20, 64
  br i1 %21, label %22, label %33

22:                                               ; preds = %19
  %23 = load i32, ptr getelementptr inbounds nuw (%struct.pmix_mca_base_framework_t, ptr @pmix_bfrops_base_framework, i32 0, i32 11), align 4, !tbaa !15
  %24 = sext i32 %23 to i64
  %25 = getelementptr inbounds [0 x %struct.pmix_output_desc_t], ptr @pmix_output_info, i64 0, i64 %24
  %26 = getelementptr inbounds nuw %struct.pmix_output_desc_t, ptr %25, i32 0, i32 2
  %27 = load i32, ptr %26, align 4, !tbaa !26
  %28 = icmp sge i32 %27, 20
  br i1 %28, label %29, label %33

29:                                               ; preds = %22
  %30 = load i32, ptr getelementptr inbounds nuw (%struct.pmix_mca_base_framework_t, ptr @pmix_bfrops_base_framework, i32 0, i32 11), align 4, !tbaa !15
  %31 = load ptr, ptr %10, align 8, !tbaa !9
  %32 = load i32, ptr %31, align 4, !tbaa !13
  call void (i32, ptr, ...) @pmix_output(i32 noundef %30, ptr noundef @.str.11, i32 noundef %32)
  br label %33

33:                                               ; preds = %29, %22, %19, %5
  %34 = load ptr, ptr %8, align 8, !tbaa !8
  %35 = load ptr, ptr %10, align 8, !tbaa !9
  %36 = load i32, ptr %35, align 4, !tbaa !13
  %37 = sext i32 %36 to i64
  %38 = mul i64 %37, 8
  %39 = call zeroext i1 @pmix_bfrop_too_small(ptr noundef %34, i64 noundef %38)
  br i1 %39, label %40, label %41

40:                                               ; preds = %33
  store i32 -50, ptr %6, align 4
  store i32 1, ptr %15, align 4
  br label %65

41:                                               ; preds = %33
  store i32 0, ptr %12, align 4, !tbaa !13
  br label %42

42:                                               ; preds = %61, %41
  %43 = load i32, ptr %12, align 4, !tbaa !13
  %44 = load ptr, ptr %10, align 8, !tbaa !9
  %45 = load i32, ptr %44, align 4, !tbaa !13
  %46 = icmp slt i32 %43, %45
  br i1 %46, label %47, label %64

47:                                               ; preds = %42
  %48 = load ptr, ptr %8, align 8, !tbaa !8
  %49 = getelementptr inbounds nuw %struct.pmix_buffer_t, ptr %48, i32 0, i32 4
  %50 = load ptr, ptr %49, align 8, !tbaa !37
  call void @llvm.memcpy.p0.p0.i64(ptr align 8 %13, ptr align 1 %50, i64 8, i1 false)
  %51 = load i64, ptr %13, align 8, !tbaa !54
  %52 = call i64 @pmix_ntoh64(i64 noundef %51) #13
  store i64 %52, ptr %13, align 8, !tbaa !54
  %53 = load ptr, ptr %14, align 8, !tbaa !53
  %54 = load i32, ptr %12, align 4, !tbaa !13
  %55 = sext i32 %54 to i64
  %56 = getelementptr inbounds i64, ptr %53, i64 %55
  call void @llvm.memcpy.p0.p0.i64(ptr align 8 %56, ptr align 8 %13, i64 8, i1 false)
  %57 = load ptr, ptr %8, align 8, !tbaa !8
  %58 = getelementptr inbounds nuw %struct.pmix_buffer_t, ptr %57, i32 0, i32 4
  %59 = load ptr, ptr %58, align 8, !tbaa !37
  %60 = getelementptr inbounds nuw i8, ptr %59, i64 8
  store ptr %60, ptr %58, align 8, !tbaa !37
  br label %61

61:                                               ; preds = %47
  %62 = load i32, ptr %12, align 4, !tbaa !13
  %63 = add nsw i32 %62, 1
  store i32 %63, ptr %12, align 4, !tbaa !13
  br label %42, !llvm.loop !75

64:                                               ; preds = %42
  store i32 0, ptr %6, align 4
  store i32 1, ptr %15, align 4
  br label %65

65:                                               ; preds = %64, %40
  call void @llvm.lifetime.end.p0(i64 8, ptr %14) #11
  call void @llvm.lifetime.end.p0(i64 8, ptr %13) #11
  call void @llvm.lifetime.end.p0(i64 4, ptr %12) #11
  %66 = load i32, ptr %6, align 4
  ret i32 %66
}